; Function Attrs: nofree norecurse nosync nounwind memory(argmem: readwrite) uwtable
define internal void @pred8x8_plane_9_c(ptr noundef captures(none) %0, i64 noundef %1) #3 {
  %3 = lshr i64 %1, 1
  %4 = trunc i64 %3 to i32
  %5 = getelementptr inbounds nuw i8, ptr %0, i64 6
  %sext = shl i64 %3, 32
  %6 = ashr exact i64 %sext, 32
  %7 = sub nsw i64 0, %6
  %8 = getelementptr inbounds i16, ptr %5, i64 %7
  %9 = shl nsw i32 %4, 2
  %10 = sext i32 %9 to i64
  %11 = getelementptr inbounds i16, ptr %0, i64 %10
  %12 = getelementptr inbounds i8, ptr %11, i64 -2
  %13 = shl nsw i32 %4, 1
  %14 = sext i32 %13 to i64
  %15 = sub nsw i64 0, %14
  %16 = getelementptr inbounds i16, ptr %12, i64 %15
  %17 = getelementptr inbounds nuw i8, ptr %8, i64 2
  %18 = load i16, ptr %17, align 2, !tbaa !9
  %19 = zext i16 %18 to i32
  %20 = getelementptr inbounds i8, ptr %8, i64 -2
  %21 = load i16, ptr %20, align 2, !tbaa !9
  %22 = zext i16 %21 to i32
  %23 = sub nsw i32 %19, %22
  %24 = load i16, ptr %12, align 2, !tbaa !9
  %25 = zext i16 %24 to i32
  %26 = load i16, ptr %16, align 2, !tbaa !9
  %27 = zext i16 %26 to i32
  %28 = sub nsw i32 %25, %27
  br label %29

29:                                               ; preds = %2, %29
  %indvars.iv = phi i64 [ 2, %2 ], [ %indvars.iv.next, %29 ]
  %.06395 = phi i32 [ %28, %2 ], [ %49, %29 ]
  %.06494 = phi i32 [ %23, %2 ], [ %42, %29 ]
  %.06593 = phi ptr [ %16, %2 ], [ %31, %29 ]
  %.06692 = phi ptr [ %12, %2 ], [ %30, %29 ]
  %30 = getelementptr inbounds i16, ptr %.06692, i64 %6
  %31 = getelementptr inbounds i16, ptr %.06593, i64 %7
  %32 = getelementptr inbounds nuw i16, ptr %8, i64 %indvars.iv
  %33 = load i16, ptr %32, align 2, !tbaa !9
  %34 = zext i16 %33 to i32
  %35 = sub nsw i64 0, %indvars.iv
  %36 = getelementptr inbounds i16, ptr %8, i64 %35
  %37 = load i16, ptr %36, align 2, !tbaa !9
  %38 = zext i16 %37 to i32
  %39 = sub nsw i32 %34, %38
  %40 = trunc nuw nsw i64 %indvars.iv to i32
  %41 = mul nsw i32 %39, %40
  %42 = add nsw i32 %41, %.06494
  %43 = load i16, ptr %30, align 2, !tbaa !9
  %44 = zext i16 %43 to i32
  %45 = load i16, ptr %31, align 2, !tbaa !9
  %46 = zext i16 %45 to i32
  %47 = sub nsw i32 %44, %46
  %48 = mul nsw i32 %47, %40
  %49 = add nsw i32 %48, %.06395
  %indvars.iv.next = add nuw nsw i64 %indvars.iv, 1
  %exitcond.not = icmp eq i64 %indvars.iv.next, 5
  br i1 %exitcond.not, label %50, label %29, !llvm.loop !19

50:                                               ; preds = %29
  %51 = mul nsw i32 %42, 17
  %52 = add nsw i32 %51, 16
  %53 = ashr i32 %52, 5
  %54 = mul nsw i32 %49, 17
  %55 = add nsw i32 %54, 16
  %56 = ashr i32 %55, 5
  %57 = getelementptr inbounds nuw i8, ptr %31, i64 16
  %58 = load i16, ptr %57, align 2, !tbaa !9
  %59 = zext i16 %58 to i32
  %60 = add nuw nsw i32 %59, %44
  %61 = shl nuw nsw i32 %60, 4
  %62 = add nsw i32 %56, %53
  %.neg = mul nsw i32 %62, -3
  %63 = add nsw i32 %.neg, 16
  %64 = add nsw i32 %63, %61
  %65 = shl nsw i32 %53, 1
  %66 = mul nsw i32 %53, 3
  %67 = shl nsw i32 %53, 2
  %68 = mul nsw i32 %53, 5
  %69 = mul nsw i32 %53, 6
  %70 = mul nsw i32 %53, 7
  br label %71

71:                                               ; preds = %50, %71
  %.098 = phi i32 [ 8, %50 ], [ %120, %71 ]
  %.06897 = phi i32 [ %64, %50 ], [ %72, %71 ]
  %.06996 = phi ptr [ %0, %50 ], [ %119, %71 ]
  %72 = add nsw i32 %.06897, %56
  %73 = ashr i32 %.06897, 5
  %74 = tail call i32 @llvm.smax.i32(i32 %73, i32 0)
  %75 = tail call i32 @llvm.umin.i32(i32 %74, i32 511)
  %76 = trunc nuw nsw i32 %75 to i16
  store i16 %76, ptr %.06996, align 2, !tbaa !9
  %77 = add nsw i32 %.06897, %53
  %78 = ashr i32 %77, 5
  %79 = tail call i32 @llvm.smax.i32(i32 %78, i32 0)
  %80 = tail call i32 @llvm.umin.i32(i32 %79, i32 511)
  %81 = trunc nuw nsw i32 %80 to i16
  %82 = getelementptr inbounds nuw i8, ptr %.06996, i64 2
  store i16 %81, ptr %82, align 2, !tbaa !9
  %83 = add nsw i32 %.06897, %65
  %84 = ashr i32 %83, 5
  %85 = tail call i32 @llvm.smax.i32(i32 %84, i32 0)
  %86 = tail call i32 @llvm.umin.i32(i32 %85, i32 511)
  %87 = trunc nuw nsw i32 %86 to i16
  %88 = getelementptr inbounds nuw i8, ptr %.06996, i64 4
  store i16 %87, ptr %88, align 2, !tbaa !9
  %89 = add nsw i32 %.06897, %66
  %90 = ashr i32 %89, 5
  %91 = tail call i32 @llvm.smax.i32(i32 %90, i32 0)
  %92 = tail call i32 @llvm.umin.i32(i32 %91, i32 511)
  %93 = trunc nuw nsw i32 %92 to i16
  %94 = getelementptr inbounds nuw i8, ptr %.06996, i64 6
  store i16 %93, ptr %94, align 2, !tbaa !9
  %95 = add nsw i32 %.06897, %67
  %96 = ashr i32 %95, 5
  %97 = tail call i32 @llvm.smax.i32(i32 %96, i32 0)
  %98 = tail call i32 @llvm.umin.i32(i32 %97, i32 511)
  %99 = trunc nuw nsw i32 %98 to i16
  %100 = getelementptr inbounds nuw i8, ptr %.06996, i64 8
  store i16 %99, ptr %100, align 2, !tbaa !9
  %101 = add nsw i32 %.06897, %68
  %102 = ashr i32 %101, 5
  %103 = tail call i32 @llvm.smax.i32(i32 %102, i32 0)
  %104 = tail call i32 @llvm.umin.i32(i32 %103, i32 511)
  %105 = trunc nuw nsw i32 %104 to i16
  %106 = getelementptr inbounds nuw i8, ptr %.06996, i64 10
  store i16 %105, ptr %106, align 2, !tbaa !9
  %107 = add nsw i32 %.06897, %69
  %108 = ashr i32 %107, 5
  %109 = tail call i32 @llvm.smax.i32(i32 %108, i32 0)
  %110 = tail call i32 @llvm.umin.i32(i32 %109, i32 511)
  %111 = trunc nuw nsw i32 %110 to i16
  %112 = getelementptr inbounds nuw i8, ptr %.06996, i64 12
  store i16 %111, ptr %112, align 2, !tbaa !9
  %113 = add nsw i32 %.06897, %70
  %114 = ashr i32 %113, 5
  %115 = tail call i32 @llvm.smax.i32(i32 %114, i32 0)
  %116 = tail call i32 @llvm.umin.i32(i32 %115, i32 511)
  %117 = trunc nuw nsw i32 %116 to i16
  %118 = getelementptr inbounds nuw i8, ptr %.06996, i64 14
  store i16 %117, ptr %118, align 2, !tbaa !9
  %119 = getelementptr inbounds i16, ptr %.06996, i64 %6
  %120 = add nsw i32 %.098, -1
  %121 = icmp samesign ugt i32 %.098, 1
  br i1 %121, label %71, label %122, !llvm.loop !20

122:                                              ; preds = %71
  ret void
}